target datalayout = "e-m:e-p270:32:32-p271:32:32-p272:64:64-i64:64-i128:128-f80:128-n8:16:32:64-S128"
target triple = "x86_64-pc-linux-gnu"

%struct.H5G_node_key_t = type { i64 }
%struct.H5G_bt_common_t = type { ptr, ptr, i64 }

@H5G_init_g = external global i8, align 1
@H5_libterm_g = external global i8, align 1
@.str.2 = private unnamed_addr constant [101 x i8] c"generated/home/dtcxzyw/WorkSpace/Projects/compilers/llvm-opt-benchmark/bench/hdf5/hdf5/src/H5Gnode.c\00", align 1
@H5E_SYM_g = external global i64, align 8
@H5E_CANTGET_g = external global i64, align 8
@__func__.H5G__node_cmp2 = private unnamed_addr constant [15 x i8] c"H5G__node_cmp2\00", align 1
@.str.44 = private unnamed_addr constant [23 x i8] c"unable to get key name\00", align 1

; Function Attrs: nounwind uwtable
define internal i32 @H5G__node_cmp2(ptr noundef %0, ptr noundef %1, ptr noundef %2) #0 {
  %4 = alloca ptr, align 8
  %5 = alloca ptr, align 8
  %6 = alloca ptr, align 8
  %7 = alloca ptr, align 8
  %8 = alloca ptr, align 8
  %9 = alloca ptr, align 8
  %10 = alloca ptr, align 8
  %11 = alloca ptr, align 8
  %12 = alloca i64, align 8
  %13 = alloca i32, align 4
  %14 = alloca i8, align 1
  store ptr %0, ptr %4, align 8, !tbaa !8
  store ptr %1, ptr %5, align 8, !tbaa !8
  store ptr %2, ptr %6, align 8, !tbaa !8
  call void @llvm.lifetime.start.p0(i64 8, ptr %7) #8
  %15 = load ptr, ptr %5, align 8, !tbaa !8
  store ptr %15, ptr %7, align 8, !tbaa !35
  call void @llvm.lifetime.start.p0(i64 8, ptr %8) #8
  %16 = load ptr, ptr %4, align 8, !tbaa !8
  store ptr %16, ptr %8, align 8, !tbaa !17
  call void @llvm.lifetime.start.p0(i64 8, ptr %9) #8
  %17 = load ptr, ptr %6, align 8, !tbaa !8
  store ptr %17, ptr %9, align 8, !tbaa !17
  call void @llvm.lifetime.start.p0(i64 8, ptr %10) #8
  call void @llvm.lifetime.start.p0(i64 8, ptr %11) #8
  call void @llvm.lifetime.start.p0(i64 8, ptr %12) #8
  call void @llvm.lifetime.start.p0(i64 4, ptr %13) #8
  store i32 0, ptr %13, align 4, !tbaa !13
  call void @llvm.lifetime.start.p0(i64 1, ptr %14) #8
  store i8 0, ptr %14, align 1, !tbaa !9
  %18 = load i8, ptr @H5G_init_g, align 1, !tbaa !9, !range !11, !noundef !12
  %19 = trunc i8 %18 to i1
  br i1 %19, label %24, label %20

20:                                               ; preds = %3
  %21 = load i8, ptr @H5_libterm_g, align 1, !tbaa !9, !range !11, !noundef !12
  %22 = trunc i8 %21 to i1
  %23 = xor i1 %22, true
  br label %24

24:                                               ; preds = %20, %3
  %25 = phi i1 [ true, %3 ], [ %23, %20 ]
  %26 = xor i1 %25, true
  %27 = xor i1 %26, true
  %28 = zext i1 %27 to i32
  %29 = sext i32 %28 to i64
  %30 = call i64 @llvm.expect.i64(i64 %29, i64 1)
  %31 = icmp ne i64 %30, 0
  br i1 %31, label %32, label %118

32:                                               ; preds = %24
  %33 = load ptr, ptr %7, align 8, !tbaa !35
  %34 = getelementptr inbounds nuw %struct.H5G_bt_common_t, ptr %33, i32 0, i32 1
  %35 = load ptr, ptr %34, align 8, !tbaa !37
  %36 = load ptr, ptr %8, align 8, !tbaa !17
  %37 = getelementptr inbounds nuw %struct.H5G_node_key_t, ptr %36, i32 0, i32 0
  %38 = load i64, ptr %37, align 8, !tbaa !33
  %39 = call ptr @H5HL_offset_into(ptr noundef %35, i64 noundef %38)
  store ptr %39, ptr %10, align 8, !tbaa !41
  %40 = icmp eq ptr %39, null
  br i1 %40, label %41, label %60

41:                                               ; preds = %32
  br label %42

42:                                               ; preds = %41
  br label %43

43:                                               ; preds = %42
  br label %44

44:                                               ; preds = %43
  %45 = load i64, ptr @H5E_SYM_g, align 8, !tbaa !21
  %46 = load i64, ptr @H5E_CANTGET_g, align 8, !tbaa !21
  %47 = call i32 (ptr, ptr, i32, i64, i64, ptr, ...) @H5E_printf_stack(ptr noundef @.str.2, ptr noundef @__func__.H5G__node_cmp2, i32 noundef 358, i64 noundef %45, i64 noundef %46, ptr noundef @.str.44)
  br label %48

48:                                               ; preds = %44
  br label %49

49:                                               ; preds = %48
  store i8 1, ptr %14, align 1, !tbaa !9
  %50 = load i8, ptr %14, align 1, !tbaa !9, !range !11, !noundef !12
  %51 = trunc i8 %50 to i1
  %52 = zext i1 %51 to i8
  store i8 %52, ptr %14, align 1, !tbaa !9
  br label %53

53:                                               ; preds = %49
  br label %54

54:                                               ; preds = %53
  br label %55

55:                                               ; preds = %54
  store i32 -1, ptr %13, align 4, !tbaa !13
  br label %117

56:                                               ; No predecessors!
  br label %57

57:                                               ; preds = %56
  br label %58

58:                                               ; preds = %57
  br label %59

59:                                               ; preds = %58
  br label %60

60:                                               ; preds = %59, %32
  %61 = load ptr, ptr %7, align 8, !tbaa !35
  %62 = getelementptr inbounds nuw %struct.H5G_bt_common_t, ptr %61, i32 0, i32 1
  %63 = load ptr, ptr %62, align 8, !tbaa !37
  %64 = load ptr, ptr %9, align 8, !tbaa !17
  %65 = getelementptr inbounds nuw %struct.H5G_node_key_t, ptr %64, i32 0, i32 0
  %66 = load i64, ptr %65, align 8, !tbaa !33
  %67 = call ptr @H5HL_offset_into(ptr noundef %63, i64 noundef %66)
  store ptr %67, ptr %11, align 8, !tbaa !41
  %68 = icmp eq ptr %67, null
  br i1 %68, label %69, label %88

69:                                               ; preds = %60
  br label %70

70:                                               ; preds = %69
  br label %71

71:                                               ; preds = %70
  br label %72

72:                                               ; preds = %71
  %73 = load i64, ptr @H5E_SYM_g, align 8, !tbaa !21
  %74 = load i64, ptr @H5E_CANTGET_g, align 8, !tbaa !21
  %75 = call i32 (ptr, ptr, i32, i64, i64, ptr, ...) @H5E_printf_stack(ptr noundef @.str.2, ptr noundef @__func__.H5G__node_cmp2, i32 noundef 360, i64 noundef %73, i64 noundef %74, ptr noundef @.str.44)
  br label %76

76:                                               ; preds = %72
  br label %77

77:                                               ; preds = %76
  store i8 1, ptr %14, align 1, !tbaa !9
  %78 = load i8, ptr %14, align 1, !tbaa !9, !range !11, !noundef !12
  %79 = trunc i8 %78 to i1
  %80 = zext i1 %79 to i8
  store i8 %80, ptr %14, align 1, !tbaa !9
  br label %81

81:                                               ; preds = %77
  br label %82

82:                                               ; preds = %81
  br label %83

83:                                               ; preds = %82
  store i32 -1, ptr %13, align 4, !tbaa !13
  br label %117

84:                                               ; No predecessors!
  br label %85

85:                                               ; preds = %84
  br label %86

86:                                               ; preds = %85
  br label %87

87:                                               ; preds = %86
  br label %88

88:                                               ; preds = %87, %60
  %89 = load ptr, ptr %9, align 8, !tbaa !17
  %90 = getelementptr inbounds nuw %struct.H5G_node_key_t, ptr %89, i32 0, i32 0
  %91 = load i64, ptr %90, align 8, !tbaa !33
  %92 = load ptr, ptr %8, align 8, !tbaa !17
  %93 = getelementptr inbounds nuw %struct.H5G_node_key_t, ptr %92, i32 0, i32 0
  %94 = load i64, ptr %93, align 8, !tbaa !33
  %95 = icmp ugt i64 %91, %94
  br i1 %95, label %96, label %104

96:                                               ; preds = %88
  %97 = load ptr, ptr %7, align 8, !tbaa !35
  %98 = getelementptr inbounds nuw %struct.H5G_bt_common_t, ptr %97, i32 0, i32 2
  %99 = load i64, ptr %98, align 8, !tbaa !42
  %100 = load ptr, ptr %9, align 8, !tbaa !17
  %101 = getelementptr inbounds nuw %struct.H5G_node_key_t, ptr %100, i32 0, i32 0
  %102 = load i64, ptr %101, align 8, !tbaa !33
  %103 = sub i64 %99, %102
  store i64 %103, ptr %12, align 8, !tbaa !21
  br label %112

104:                                              ; preds = %88
  %105 = load ptr, ptr %7, align 8, !tbaa !35
  %106 = getelementptr inbounds nuw %struct.H5G_bt_common_t, ptr %105, i32 0, i32 2
  %107 = load i64, ptr %106, align 8, !tbaa !42
  %108 = load ptr, ptr %8, align 8, !tbaa !17
  %109 = getelementptr inbounds nuw %struct.H5G_node_key_t, ptr %108, i32 0, i32 0
  %110 = load i64, ptr %109, align 8, !tbaa !33
  %111 = sub i64 %107, %110
  store i64 %111, ptr %12, align 8, !tbaa !21
  br label %112

112:                                              ; preds = %104, %96
  %113 = load ptr, ptr %10, align 8, !tbaa !41
  %114 = load ptr, ptr %11, align 8, !tbaa !41
  %115 = load i64, ptr %12, align 8, !tbaa !21
  %116 = call i32 @strncmp(ptr noundef %113, ptr noundef %114, i64 noundef %115) #9
  store i32 %116, ptr %13, align 4, !tbaa !13
  br label %117

117:                                              ; preds = %112, %83, %55
  br label %118

118:                                              ; preds = %117, %24
  %119 = load i32, ptr %13, align 4, !tbaa !13
  call void @llvm.lifetime.end.p0(i64 1, ptr %14) #8
  call void @llvm.lifetime.end.p0(i64 4, ptr %13) #8
  call void @llvm.lifetime.end.p0(i64 8, ptr %12) #8
  call void @llvm.lifetime.end.p0(i64 8, ptr %11) #8
  call void @llvm.lifetime.end.p0(i64 8, ptr %10) #8
  call void @llvm.lifetime.end.p0(i64 8, ptr %9) #8
  call void @llvm.lifetime.end.p0(i64 8, ptr %8) #8
  call void @llvm.lifetime.end.p0(i64 8, ptr %7) #8
  ret i32 %119
}