; Function Attrs: nounwind uwtable
define internal i32 @H5G__node_cmp2(ptr noundef readonly captures(none) %0, ptr noundef readonly captures(none) %1, ptr noundef readonly captures(none) %2) #0 {
  %4 = load i8, ptr @H5G_init_g, align 1, !tbaa !3, !range !7, !noundef !8
  %5 = trunc nuw i8 %4 to i1
  %6 = load i8, ptr @H5_libterm_g, align 1, !range !7
  %7 = trunc nuw i8 %6 to i1
  %8 = xor i1 %7, true
  %9 = select i1 %5, i1 true, i1 %8
  br i1 %9, label %10, label %36, !prof !9

10:                                               ; preds = %3
  %11 = getelementptr inbounds nuw i8, ptr %1, i64 8
  %12 = load ptr, ptr %11, align 8, !tbaa !27
  %13 = load i64, ptr %0, align 8, !tbaa !25
  %14 = tail call ptr @H5HL_offset_into(ptr noundef %12, i64 noundef %13) #9
  %15 = icmp eq ptr %14, null
  br i1 %15, label %16, label %20

16:                                               ; preds = %10
  %17 = load i64, ptr @H5E_SYM_g, align 8, !tbaa !10
  %18 = load i64, ptr @H5E_CANTGET_g, align 8, !tbaa !10
  %19 = tail call i32 (ptr, ptr, i32, i64, i64, ptr, ...) @H5E_printf_stack(ptr noundef nonnull @.str.2, ptr noundef nonnull @__func__.H5G__node_cmp2, i32 noundef 358, i64 noundef %17, i64 noundef %18, ptr noundef nonnull @.str.44) #9
  br label %36

20:                                               ; preds = %10
  %21 = load ptr, ptr %11, align 8, !tbaa !27
  %22 = load i64, ptr %2, align 8, !tbaa !25
  %23 = tail call ptr @H5HL_offset_into(ptr noundef %21, i64 noundef %22) #9
  %24 = icmp eq ptr %23, null
  br i1 %24, label %25, label %29

25:                                               ; preds = %20
  %26 = load i64, ptr @H5E_SYM_g, align 8, !tbaa !10
  %27 = load i64, ptr @H5E_CANTGET_g, align 8, !tbaa !10
  %28 = tail call i32 (ptr, ptr, i32, i64, i64, ptr, ...) @H5E_printf_stack(ptr noundef nonnull @.str.2, ptr noundef nonnull @__func__.H5G__node_cmp2, i32 noundef 360, i64 noundef %26, i64 noundef %27, ptr noundef nonnull @.str.44) #9
  br label %36

29:                                               ; preds = %20
  %30 = load i64, ptr %2, align 8, !tbaa !25
  %31 = load i64, ptr %0, align 8, !tbaa !25
  %32 = getelementptr inbounds nuw i8, ptr %1, i64 16
  %33 = load i64, ptr %32, align 8, !tbaa !31
  %. = tail call i64 @llvm.umax.i64(i64 %30, i64 %31)
  %34 = sub i64 %33, %.
  %35 = tail call i32 @strncmp(ptr noundef nonnull %14, ptr noundef nonnull %23, i64 noundef %34) #10
  br label %36

36:                                               ; preds = %16, %25, %29, %3
  %.0 = phi i32 [ -1, %16 ], [ -1, %25 ], [ %35, %29 ], [ 0, %3 ]
  ret i32 %.0
}